; ModuleID = '58/1260.c'
source_filename = "58/1260.c"
target datalayout = "e-m:e-p270:32:32-p271:32:32-p272:64:64-i64:64-f80:128-n8:16:32:64-S128"
target triple = "x86_64-pc-linux-gnu"

@.str = private unnamed_addr constant [3 x i8] c"0\0A\00", align 1
@.str.1 = private unnamed_addr constant [3 x i8] c"1\0A\00", align 1

; Function Attrs: noinline nounwind uwtable
define dso_local i32 @main() #0 {
  %1 = alloca i32, align 4
  %2 = alloca i32, align 4
  %3 = alloca i32, align 4
  %4 = alloca i32, align 4
  %5 = alloca [200 x i32], align 16
  %6 = alloca i32, align 4
  %7 = alloca [200 x [85 x i8]], align 16
  %8 = alloca [5 x i8], align 1
  store i32 0, i32* %1, align 4
  store i32 0, i32* %6, align 4
  %9 = getelementptr inbounds [5 x i8], [5 x i8]* %8, i64 0, i64 0
  %10 = call i32 (i8*, ...) bitcast (i32 (...)* @gets to i32 (i8*, ...)*)(i8* %9)
  %11 = getelementptr inbounds [5 x i8], [5 x i8]* %8, i64 0, i64 0
  %12 = call i32 @atoi(i8* %11) #3
  store i32 %12, i32* %2, align 4
  store i32 0, i32* %3, align 4
  br label %13

13:                                               ; preds = %23, %0
  %14 = load i32, i32* %3, align 4
  %15 = load i32, i32* %2, align 4
  %16 = icmp slt i32 %14, %15
  br i1 %16, label %17, label %26

17:                                               ; preds = %13
  %18 = load i32, i32* %3, align 4
  %19 = sext i32 %18 to i64
  %20 = getelementptr inbounds [200 x [85 x i8]], [200 x [85 x i8]]* %7, i64 0, i64 %19
  %21 = getelementptr inbounds [85 x i8], [85 x i8]* %20, i64 0, i64 0
  %22 = call i32 (i8*, ...) bitcast (i32 (...)* @gets to i32 (i8*, ...)*)(i8* %21)
  br label %23

23:                                               ; preds = %17
  %24 = load i32, i32* %3, align 4
  %25 = add nsw i32 %24, 1
  store i32 %25, i32* %3, align 4
  br label %13

26:                                               ; preds = %13
  store i32 0, i32* %3, align 4
  br label %27

27:                                               ; preds = %184, %26
  %28 = load i32, i32* %3, align 4
  %29 = load i32, i32* %2, align 4
  %30 = icmp slt i32 %28, %29
  br i1 %30, label %31, label %187

31:                                               ; preds = %27
  store i32 0, i32* %6, align 4
  %32 = load i32, i32* %3, align 4
  %33 = sext i32 %32 to i64
  %34 = getelementptr inbounds [200 x [85 x i8]], [200 x [85 x i8]]* %7, i64 0, i64 %33
  %35 = getelementptr inbounds [85 x i8], [85 x i8]* %34, i64 0, i64 0
  %36 = call i64 @strlen(i8* %35) #3
  %37 = trunc i64 %36 to i32
  %38 = load i32, i32* %3, align 4
  %39 = sext i32 %38 to i64
  %40 = getelementptr inbounds [200 x i32], [200 x i32]* %5, i64 0, i64 %39
  store i32 %37, i32* %40, align 4
  %41 = load i32, i32* %3, align 4
  %42 = sext i32 %41 to i64
  %43 = getelementptr inbounds [200 x [85 x i8]], [200 x [85 x i8]]* %7, i64 0, i64 %42
  %44 = getelementptr inbounds [85 x i8], [85 x i8]* %43, i64 0, i64 0
  %45 = load i8, i8* %44, align 1
  %46 = sext i8 %45 to i32
  %47 = icmp ne i32 %46, 95
  br i1 %47, label %48, label %87

48:                                               ; preds = %31
  %49 = load i32, i32* %3, align 4
  %50 = sext i32 %49 to i64
  %51 = getelementptr inbounds [200 x [85 x i8]], [200 x [85 x i8]]* %7, i64 0, i64 %50
  %52 = getelementptr inbounds [85 x i8], [85 x i8]* %51, i64 0, i64 0
  %53 = load i8, i8* %52, align 1
  %54 = sext i8 %53 to i32
  %55 = icmp slt i32 %54, 65
  br i1 %55, label %56, label %58

56:                                               ; preds = %48
  %57 = call i32 (i8*, ...) @printf(i8* getelementptr inbounds ([3 x i8], [3 x i8]* @.str, i64 0, i64 0))
  store i32 1, i32* %6, align 4
  br label %184

58:                                               ; preds = %48
  %59 = load i32, i32* %3, align 4
  %60 = sext i32 %59 to i64
  %61 = getelementptr inbounds [200 x [85 x i8]], [200 x [85 x i8]]* %7, i64 0, i64 %60
  %62 = getelementptr inbounds [85 x i8], [85 x i8]* %61, i64 0, i64 0
  %63 = load i8, i8* %62, align 1
  %64 = sext i8 %63 to i32
  %65 = icmp slt i32 %64, 97
  br i1 %65, label %66, label %76

66:                                               ; preds = %58
  %67 = load i32, i32* %3, align 4
  %68 = sext i32 %67 to i64
  %69 = getelementptr inbounds [200 x [85 x i8]], [200 x [85 x i8]]* %7, i64 0, i64 %68
  %70 = getelementptr inbounds [85 x i8], [85 x i8]* %69, i64 0, i64 0
  %71 = load i8, i8* %70, align 1
  %72 = sext i8 %71 to i32
  %73 = icmp sgt i32 %72, 90
  br i1 %73, label %74, label %76

74:                                               ; preds = %66
  %75 = call i32 (i8*, ...) @printf(i8* getelementptr inbounds ([3 x i8], [3 x i8]* @.str, i64 0, i64 0))
  store i32 1, i32* %6, align 4
  br label %184

76:                                               ; preds = %66, %58
  %77 = load i32, i32* %3, align 4
  %78 = sext i32 %77 to i64
  %79 = getelementptr inbounds [200 x [85 x i8]], [200 x [85 x i8]]* %7, i64 0, i64 %78
  %80 = getelementptr inbounds [85 x i8], [85 x i8]* %79, i64 0, i64 0
  %81 = load i8, i8* %80, align 1
  %82 = sext i8 %81 to i32
  %83 = icmp sgt i32 %82, 122
  br i1 %83, label %84, label %86

84:                                               ; preds = %76
  %85 = call i32 (i8*, ...) @printf(i8* getelementptr inbounds ([3 x i8], [3 x i8]* @.str, i64 0, i64 0))
  store i32 1, i32* %6, align 4
  br label %184

86:                                               ; preds = %76
  br label %87

87:                                               ; preds = %86, %31
  store i32 1, i32* %4, align 4
  br label %88

88:                                               ; preds = %175, %87
  %89 = load i32, i32* %4, align 4
  %90 = load i32, i32* %3, align 4
  %91 = sext i32 %90 to i64
  %92 = getelementptr inbounds [200 x i32], [200 x i32]* %5, i64 0, i64 %91
  %93 = load i32, i32* %92, align 4
  %94 = icmp slt i32 %89, %93
  br i1 %94, label %95, label %178

95:                                               ; preds = %88
  %96 = load i32, i32* %3, align 4
  %97 = sext i32 %96 to i64
  %98 = getelementptr inbounds [200 x [85 x i8]], [200 x [85 x i8]]* %7, i64 0, i64 %97
  %99 = load i32, i32* %4, align 4
  %100 = sext i32 %99 to i64
  %101 = getelementptr inbounds [85 x i8], [85 x i8]* %98, i64 0, i64 %100
  %102 = load i8, i8* %101, align 1
  %103 = sext i8 %102 to i32
  %104 = icmp ne i32 %103, 95
  br i1 %104, label %105, label %174

105:                                              ; preds = %95
  %106 = load i32, i32* %3, align 4
  %107 = sext i32 %106 to i64
  %108 = getelementptr inbounds [200 x [85 x i8]], [200 x [85 x i8]]* %7, i64 0, i64 %107
  %109 = load i32, i32* %4, align 4
  %110 = sext i32 %109 to i64
  %111 = getelementptr inbounds [85 x i8], [85 x i8]* %108, i64 0, i64 %110
  %112 = load i8, i8* %111, align 1
  %113 = sext i8 %112 to i32
  %114 = icmp slt i32 %113, 48
  br i1 %114, label %115, label %117

115:                                              ; preds = %105
  %116 = call i32 (i8*, ...) @printf(i8* getelementptr inbounds ([3 x i8], [3 x i8]* @.str, i64 0, i64 0))
  store i32 1, i32* %6, align 4
  br label %178

117:                                              ; preds = %105
  %118 = load i32, i32* %3, align 4
  %119 = sext i32 %118 to i64
  %120 = getelementptr inbounds [200 x [85 x i8]], [200 x [85 x i8]]* %7, i64 0, i64 %119
  %121 = load i32, i32* %4, align 4
  %122 = sext i32 %121 to i64
  %123 = getelementptr inbounds [85 x i8], [85 x i8]* %120, i64 0, i64 %122
  %124 = load i8, i8* %123, align 1
  %125 = sext i8 %124 to i32
  %126 = icmp sgt i32 %125, 57
  br i1 %126, label %127, label %139

127:                                              ; preds = %117
  %128 = load i32, i32* %3, align 4
  %129 = sext i32 %128 to i64
  %130 = getelementptr inbounds [200 x [85 x i8]], [200 x [85 x i8]]* %7, i64 0, i64 %129
  %131 = load i32, i32* %4, align 4
  %132 = sext i32 %131 to i64
  %133 = getelementptr inbounds [85 x i8], [85 x i8]* %130, i64 0, i64 %132
  %134 = load i8, i8* %133, align 1
  %135 = sext i8 %134 to i32
  %136 = icmp slt i32 %135, 65
  br i1 %136, label %137, label %139

137:                                              ; preds = %127
  %138 = call i32 (i8*, ...) @printf(i8* getelementptr inbounds ([3 x i8], [3 x i8]* @.str, i64 0, i64 0))
  store i32 1, i32* %6, align 4
  br label %178

139:                                              ; preds = %127, %117
  %140 = load i32, i32* %3, align 4
  %141 = sext i32 %140 to i64
  %142 = getelementptr inbounds [200 x [85 x i8]], [200 x [85 x i8]]* %7, i64 0, i64 %141
  %143 = load i32, i32* %4, align 4
  %144 = sext i32 %143 to i64
  %145 = getelementptr inbounds [85 x i8], [85 x i8]* %142, i64 0, i64 %144
  %146 = load i8, i8* %145, align 1
  %147 = sext i8 %146 to i32
  %148 = icmp slt i32 %147, 97
  br i1 %148, label %149, label %161

149:                                              ; preds = %139
  %150 = load i32, i32* %3, align 4
  %151 = sext i32 %150 to i64
  %152 = getelementptr inbounds [200 x [85 x i8]], [200 x [85 x i8]]* %7, i64 0, i64 %151
  %153 = load i32, i32* %4, align 4
  %154 = sext i32 %153 to i64
  %155 = getelementptr inbounds [85 x i8], [85 x i8]* %152, i64 0, i64 %154
  %156 = load i8, i8* %155, align 1
  %157 = sext i8 %156 to i32
  %158 = icmp sgt i32 %157, 90
  br i1 %158, label %159, label %161

159:                                              ; preds = %149
  %160 = call i32 (i8*, ...) @printf(i8* getelementptr inbounds ([3 x i8], [3 x i8]* @.str, i64 0, i64 0))
  store i32 1, i32* %6, align 4
  br label %178

161:                                              ; preds = %149, %139
  %162 = load i32, i32* %3, align 4
  %163 = sext i32 %162 to i64
  %164 = getelementptr inbounds [200 x [85 x i8]], [200 x [85 x i8]]* %7, i64 0, i64 %163
  %165 = load i32, i32* %4, align 4
  %166 = sext i32 %165 to i64
  %167 = getelementptr inbounds [85 x i8], [85 x i8]* %164, i64 0, i64 %166
  %168 = load i8, i8* %167, align 1
  %169 = sext i8 %168 to i32
  %170 = icmp sgt i32 %169, 122
  br i1 %170, label %171, label %173

171:                                              ; preds = %161
  %172 = call i32 (i8*, ...) @printf(i8* getelementptr inbounds ([3 x i8], [3 x i8]* @.str, i64 0, i64 0))
  store i32 1, i32* %6, align 4
  br label %178

173:                                              ; preds = %161
  br label %174

174:                                              ; preds = %173, %95
  br label %175

175:                                              ; preds = %174
  %176 = load i32, i32* %4, align 4
  %177 = add nsw i32 %176, 1
  store i32 %177, i32* %4, align 4
  br label %88

178:                                              ; preds = %171, %159, %137, %115, %88
  %179 = load i32, i32* %6, align 4
  %180 = icmp eq i32 %179, 0
  br i1 %180, label %181, label %183

181:                                              ; preds = %178
  %182 = call i32 (i8*, ...) @printf(i8* getelementptr inbounds ([3 x i8], [3 x i8]* @.str.1, i64 0, i64 0))
  br label %183

183:                                              ; preds = %181, %178
  br label %184

184:                                              ; preds = %183, %84, %74, %56
  %185 = load i32, i32* %3, align 4
  %186 = add nsw i32 %185, 1
  store i32 %186, i32* %3, align 4
  br label %27

187:                                              ; preds = %27
  %188 = call i32 @getchar()
  %189 = call i32 @getchar()
  %190 = load i32, i32* %1, align 4
  ret i32 %190
}

declare dso_local i32 @gets(...) #1

; Function Attrs: nounwind readonly
declare dso_local i32 @atoi(i8*) #2

; Function Attrs: nounwind readonly
declare dso_local i64 @strlen(i8*) #2

declare dso_local i32 @printf(i8*, ...) #1

declare dso_local i32 @getchar() #1


!llvm.module.flags = !{!0}
!llvm.ident = !{!1}

!0 = !{i32 1, !"wchar_size", i32 4}
!1 = !{!"clang version 10.0.0-4ubuntu1 "}
